target datalayout = "e-m:e-p270:32:32-p271:32:32-p272:64:64-i64:64-i128:128-f80:128-n8:16:32:64-S128"
target triple = "x86_64-pc-linux-gnu"

%struct.FxuMatrix = type { %struct.FxuListCube, %struct.FxuListVar, ptr, ptr, i32, i32, i32, ptr, %struct.FxuListSingle, ptr, i32, i32, ptr, ptr, ptr, ptr, ptr, ptr, ptr, i32, i32, i32, i32, ptr }
%struct.FxuListCube = type { ptr, ptr, i32 }
%struct.FxuListVar = type { ptr, ptr, i32 }
%struct.FxuListSingle = type { ptr, ptr, i32 }
%struct.FxuVar = type { i32, i32, ptr, ptr, %struct.FxuListLit, ptr, ptr, ptr }
%struct.FxuListLit = type { ptr, ptr, i32 }
%struct.FxuLit = type { i32, i32, ptr, ptr, ptr, ptr, ptr, ptr }

; Function Attrs: nounwind uwtable
define i32 @Fxu_SelectSCD(ptr noundef %0, i32 noundef %1, ptr noundef %2, ptr noundef %3) #0 {
  %5 = alloca ptr, align 8
  %6 = alloca i32, align 4
  %7 = alloca ptr, align 8
  %8 = alloca ptr, align 8
  %9 = alloca ptr, align 8
  %10 = alloca ptr, align 8
  %11 = alloca ptr, align 8
  %12 = alloca ptr, align 8
  %13 = alloca ptr, align 8
  %14 = alloca i32, align 4
  %15 = alloca i32, align 4
  %16 = alloca i32, align 4
  %17 = alloca i32, align 4
  %18 = alloca i32, align 4
  store ptr %0, ptr %5, align 8
  store i32 %1, ptr %6, align 4
  store ptr %2, ptr %7, align 8
  store ptr %3, ptr %8, align 8
  store i32 0, ptr %15, align 4
  store i32 0, ptr %16, align 4
  store i32 -10, ptr %18, align 4
  %19 = load ptr, ptr %5, align 8
  %20 = getelementptr inbounds %struct.FxuMatrix, ptr %19, i32 0, i32 1
  %21 = getelementptr inbounds %struct.FxuListVar, ptr %20, i32 0, i32 0
  %22 = load ptr, ptr %21, align 8
  store ptr %22, ptr %9, align 8
  br label %23

23:                                               ; preds = %162, %4
  %24 = load ptr, ptr %9, align 8
  %25 = icmp ne ptr %24, null
  br i1 %25, label %26, label %166

26:                                               ; preds = %23
  %27 = load ptr, ptr %5, align 8
  %28 = getelementptr inbounds %struct.FxuMatrix, ptr %27, i32 0, i32 16
  %29 = load ptr, ptr %5, align 8
  %30 = getelementptr inbounds %struct.FxuMatrix, ptr %29, i32 0, i32 17
  store ptr %28, ptr %30, align 8
  %31 = load ptr, ptr %5, align 8
  %32 = getelementptr inbounds %struct.FxuMatrix, ptr %31, i32 0, i32 16
  store ptr null, ptr %32, align 8
  %33 = load ptr, ptr %9, align 8
  %34 = getelementptr inbounds %struct.FxuVar, ptr %33, i32 0, i32 4
  %35 = getelementptr inbounds %struct.FxuListLit, ptr %34, i32 0, i32 0
  %36 = load ptr, ptr %35, align 8
  store ptr %36, ptr %12, align 8
  br label %37

37:                                               ; preds = %75, %26
  %38 = load ptr, ptr %12, align 8
  %39 = icmp ne ptr %38, null
  br i1 %39, label %40, label %79

40:                                               ; preds = %37
  %41 = load ptr, ptr %12, align 8
  %42 = getelementptr inbounds %struct.FxuLit, ptr %41, i32 0, i32 5
  %43 = load ptr, ptr %42, align 8
  store ptr %43, ptr %13, align 8
  br label %44

44:                                               ; preds = %70, %40
  %45 = load ptr, ptr %13, align 8
  %46 = icmp ne ptr %45, null
  br i1 %46, label %47, label %74

47:                                               ; preds = %44
  %48 = load ptr, ptr %13, align 8
  %49 = getelementptr inbounds %struct.FxuLit, ptr %48, i32 0, i32 3
  %50 = load ptr, ptr %49, align 8
  store ptr %50, ptr %10, align 8
  %51 = load i32, ptr %15, align 4
  %52 = add nsw i32 %51, 1
  store i32 %52, ptr %15, align 4
  %53 = load ptr, ptr %10, align 8
  %54 = getelementptr inbounds %struct.FxuVar, ptr %53, i32 0, i32 7
  %55 = load ptr, ptr %54, align 8
  %56 = icmp ne ptr %55, null
  br i1 %56, label %57, label %58

57:                                               ; preds = %47
  br label %70

58:                                               ; preds = %47
  %59 = load ptr, ptr %10, align 8
  %60 = load ptr, ptr %5, align 8
  %61 = getelementptr inbounds %struct.FxuMatrix, ptr %60, i32 0, i32 17
  %62 = load ptr, ptr %61, align 8
  store ptr %59, ptr %62, align 8
  %63 = load ptr, ptr %10, align 8
  %64 = getelementptr inbounds %struct.FxuVar, ptr %63, i32 0, i32 7
  %65 = load ptr, ptr %5, align 8
  %66 = getelementptr inbounds %struct.FxuMatrix, ptr %65, i32 0, i32 17
  store ptr %64, ptr %66, align 8
  %67 = load ptr, ptr %10, align 8
  %68 = getelementptr inbounds %struct.FxuVar, ptr %67, i32 0, i32 7
  %69 = inttoptr i64 1 to ptr
  store ptr %69, ptr %68, align 8
  br label %70

70:                                               ; preds = %58, %57
  %71 = load ptr, ptr %13, align 8
  %72 = getelementptr inbounds %struct.FxuLit, ptr %71, i32 0, i32 5
  %73 = load ptr, ptr %72, align 8
  store ptr %73, ptr %13, align 8
  br label %44, !llvm.loop !17

74:                                               ; preds = %44
  br label %75

75:                                               ; preds = %74
  %76 = load ptr, ptr %12, align 8
  %77 = getelementptr inbounds %struct.FxuLit, ptr %76, i32 0, i32 7
  %78 = load ptr, ptr %77, align 8
  store ptr %78, ptr %12, align 8
  br label %37, !llvm.loop !18

79:                                               ; preds = %37
  %80 = load ptr, ptr %5, align 8
  %81 = getelementptr inbounds %struct.FxuMatrix, ptr %80, i32 0, i32 16
  %82 = load ptr, ptr %81, align 8
  %83 = icmp ne ptr %82, null
  br i1 %83, label %84, label %116

84:                                               ; preds = %79
  %85 = load ptr, ptr %5, align 8
  %86 = getelementptr inbounds %struct.FxuMatrix, ptr %85, i32 0, i32 16
  %87 = load ptr, ptr %86, align 8
  store ptr %87, ptr %10, align 8
  br label %88

88:                                               ; preds = %111, %84
  %89 = load ptr, ptr %10, align 8
  %90 = inttoptr i64 1 to ptr
  %91 = icmp ne ptr %89, %90
  br i1 %91, label %92, label %115

92:                                               ; preds = %88
  %93 = load i32, ptr %16, align 4
  %94 = add nsw i32 %93, 1
  store i32 %94, ptr %16, align 4
  %95 = load ptr, ptr %5, align 8
  %96 = load ptr, ptr %9, align 8
  %97 = load ptr, ptr %10, align 8
  %98 = call i32 @Fxu_SingleCountCoincidence(ptr noundef %95, ptr noundef %96, ptr noundef %97)
  store i32 %98, ptr %14, align 4
  %99 = load i32, ptr %14, align 4
  %100 = sub nsw i32 %99, 2
  store i32 %100, ptr %17, align 4
  %101 = load i32, ptr %18, align 4
  %102 = load i32, ptr %17, align 4
  %103 = icmp slt i32 %101, %102
  br i1 %103, label %104, label %110

104:                                              ; preds = %92
  %105 = load i32, ptr %17, align 4
  store i32 %105, ptr %18, align 4
  %106 = load ptr, ptr %9, align 8
  %107 = load ptr, ptr %7, align 8
  store ptr %106, ptr %107, align 8
  %108 = load ptr, ptr %10, align 8
  %109 = load ptr, ptr %8, align 8
  store ptr %108, ptr %109, align 8
  br label %110

110:                                              ; preds = %104, %92
  br label %111

111:                                              ; preds = %110
  %112 = load ptr, ptr %10, align 8
  %113 = getelementptr inbounds %struct.FxuVar, ptr %112, i32 0, i32 7
  %114 = load ptr, ptr %113, align 8
  store ptr %114, ptr %10, align 8
  br label %88, !llvm.loop !19

115:                                              ; preds = %88
  br label %116

116:                                              ; preds = %115, %79
  %117 = load ptr, ptr %5, align 8
  %118 = getelementptr inbounds %struct.FxuMatrix, ptr %117, i32 0, i32 16
  %119 = load ptr, ptr %118, align 8
  %120 = icmp ne ptr %119, null
  br i1 %120, label %121, label %157

121:                                              ; preds = %116
  %122 = load ptr, ptr %5, align 8
  %123 = getelementptr inbounds %struct.FxuMatrix, ptr %122, i32 0, i32 16
  %124 = load ptr, ptr %123, align 8
  store ptr %124, ptr %10, align 8
  %125 = load ptr, ptr %10, align 8
  %126 = inttoptr i64 1 to ptr
  %127 = icmp ne ptr %125, %126
  br i1 %127, label %128, label %132

128:                                              ; preds = %121
  %129 = load ptr, ptr %10, align 8
  %130 = getelementptr inbounds %struct.FxuVar, ptr %129, i32 0, i32 7
  %131 = load ptr, ptr %130, align 8
  br label %134

132:                                              ; preds = %121
  %133 = inttoptr i64 1 to ptr
  br label %134

134:                                              ; preds = %132, %128
  %135 = phi ptr [ %131, %128 ], [ %133, %132 ]
  store ptr %135, ptr %11, align 8
  br label %136

136:                                              ; preds = %154, %134
  %137 = load ptr, ptr %10, align 8
  %138 = inttoptr i64 1 to ptr
  %139 = icmp ne ptr %137, %138
  br i1 %139, label %140, label %156

140:                                              ; preds = %136
  %141 = load ptr, ptr %10, align 8
  %142 = getelementptr inbounds %struct.FxuVar, ptr %141, i32 0, i32 7
  store ptr null, ptr %142, align 8
  br label %143

143:                                              ; preds = %140
  %144 = load ptr, ptr %11, align 8
  store ptr %144, ptr %10, align 8
  %145 = load ptr, ptr %10, align 8
  %146 = inttoptr i64 1 to ptr
  %147 = icmp ne ptr %145, %146
  br i1 %147, label %148, label %152

148:                                              ; preds = %143
  %149 = load ptr, ptr %10, align 8
  %150 = getelementptr inbounds %struct.FxuVar, ptr %149, i32 0, i32 7
  %151 = load ptr, ptr %150, align 8
  br label %154

152:                                              ; preds = %143
  %153 = inttoptr i64 1 to ptr
  br label %154

154:                                              ; preds = %152, %148
  %155 = phi ptr [ %151, %148 ], [ %153, %152 ]
  store ptr %155, ptr %11, align 8
  br label %136, !llvm.loop !20

156:                                              ; preds = %136
  br label %157

157:                                              ; preds = %156, %116
  %158 = load ptr, ptr %5, align 8
  %159 = getelementptr inbounds %struct.FxuMatrix, ptr %158, i32 0, i32 16
  store ptr null, ptr %159, align 8
  %160 = load ptr, ptr %5, align 8
  %161 = getelementptr inbounds %struct.FxuMatrix, ptr %160, i32 0, i32 17
  store ptr null, ptr %161, align 8
  br label %162

162:                                              ; preds = %157
  %163 = load ptr, ptr %9, align 8
  %164 = getelementptr inbounds %struct.FxuVar, ptr %163, i32 0, i32 6
  %165 = load ptr, ptr %164, align 8
  store ptr %165, ptr %9, align 8
  br label %23, !llvm.loop !21

166:                                              ; preds = %23
  %167 = load i32, ptr %18, align 4
  ret i32 %167
}