; Function Attrs: nounwind uwtable
define range(i32 -10, 2147483646) i32 @Fxu_SelectSCD(ptr noundef %0, i32 noundef %1, ptr noundef writeonly captures(none) %2, ptr noundef writeonly captures(none) %3) local_unnamed_addr #0 {
  %5 = getelementptr inbounds nuw i8, ptr %0, i64 24
  %.04796 = load ptr, ptr %5, align 8
  %.not97 = icmp eq ptr %.04796, null
  br i1 %.not97, label %._crit_edge104, label %.lr.ph103

.lr.ph103:                                        ; preds = %4
  %6 = getelementptr inbounds nuw i8, ptr %0, i64 160
  %7 = getelementptr inbounds nuw i8, ptr %0, i64 168
  br label %8

8:                                                ; preds = %.lr.ph103, %.loopexit
  %.047101 = phi ptr [ %.04796, %.lr.ph103 ], [ %.047, %.loopexit ]
  %.0100 = phi i32 [ -10, %.lr.ph103 ], [ %.1, %.loopexit ]
  store ptr %6, ptr %7, align 8
  store ptr null, ptr %6, align 8
  %9 = getelementptr inbounds nuw i8, ptr %.047101, i64 24
  %.05778 = load ptr, ptr %9, align 8
  %.not6279 = icmp eq ptr %.05778, null
  br i1 %.not6279, label %.loopexit72, label %.preheader

.preheader:                                       ; preds = %8, %._crit_edge
  %.05781 = phi ptr [ %.057, %._crit_edge ], [ %.05778, %8 ]
  %.056.in73 = getelementptr inbounds nuw i8, ptr %.05781, i64 32
  %.05674 = load ptr, ptr %.056.in73, align 8
  %.not6975 = icmp eq ptr %.05674, null
  br i1 %.not6975, label %._crit_edge, label %.lr.ph

.lr.ph:                                           ; preds = %.preheader, %16
  %.05677 = phi ptr [ %.056, %16 ], [ %.05674, %.preheader ]
  %10 = getelementptr inbounds nuw i8, ptr %.05677, i64 16
  %11 = load ptr, ptr %10, align 8
  %12 = getelementptr inbounds nuw i8, ptr %11, i64 64
  %13 = load ptr, ptr %12, align 8
  %.not70 = icmp eq ptr %13, null
  br i1 %.not70, label %14, label %16

14:                                               ; preds = %.lr.ph
  %15 = load ptr, ptr %7, align 8
  store ptr %11, ptr %15, align 8
  store ptr %12, ptr %7, align 8
  store ptr inttoptr (i64 1 to ptr), ptr %12, align 8
  br label %16

16:                                               ; preds = %.lr.ph, %14
  %.056.in = getelementptr inbounds nuw i8, ptr %.05677, i64 32
  %.056 = load ptr, ptr %.056.in, align 8
  %.not69 = icmp eq ptr %.056, null
  br i1 %.not69, label %._crit_edge, label %.lr.ph, !llvm.loop !17

._crit_edge:                                      ; preds = %16, %.preheader
  %17 = getelementptr inbounds nuw i8, ptr %.05781, i64 48
  %.057 = load ptr, ptr %17, align 8
  %.not62 = icmp eq ptr %.057, null
  br i1 %.not62, label %._crit_edge82, label %.preheader, !llvm.loop !18

._crit_edge82:                                    ; preds = %._crit_edge
  %.pre = load ptr, ptr %6, align 8
  %switch = icmp ult ptr %.pre, inttoptr (i64 2 to ptr)
  br i1 %switch, label %.loopexit72, label %.lr.ph88

.lr.ph88:                                         ; preds = %._crit_edge82, %22
  %.287 = phi i32 [ %.3, %22 ], [ %.0100, %._crit_edge82 ]
  %.05485 = phi ptr [ %24, %22 ], [ %.pre, %._crit_edge82 ]
  %18 = tail call i32 @Fxu_SingleCountCoincidence(ptr noundef %0, ptr noundef nonnull %.047101, ptr noundef %.05485) #6
  %19 = add nsw i32 %18, -2
  %20 = icmp slt i32 %.287, %19
  br i1 %20, label %21, label %22

21:                                               ; preds = %.lr.ph88
  store ptr %.047101, ptr %2, align 8
  store ptr %.05485, ptr %3, align 8
  br label %22

22:                                               ; preds = %.lr.ph88, %21
  %.3 = phi i32 [ %19, %21 ], [ %.287, %.lr.ph88 ]
  %23 = getelementptr inbounds nuw i8, ptr %.05485, i64 64
  %24 = load ptr, ptr %23, align 8
  %.not64 = icmp eq ptr %24, inttoptr (i64 1 to ptr)
  br i1 %.not64, label %.loopexit72.loopexit, label %.lr.ph88, !llvm.loop !19

.loopexit72.loopexit:                             ; preds = %22
  %.pre108 = load ptr, ptr %6, align 8
  br label %.loopexit72

.loopexit72:                                      ; preds = %8, %.loopexit72.loopexit, %._crit_edge82
  %25 = phi ptr [ %.pre, %._crit_edge82 ], [ %.pre108, %.loopexit72.loopexit ], [ null, %8 ]
  %.1 = phi i32 [ %.0100, %._crit_edge82 ], [ %.3, %.loopexit72.loopexit ], [ %.0100, %8 ]
  %magicptr = ptrtoint ptr %25 to i64
  switch i64 %magicptr, label %26 [
    i64 0, label %.loopexit
    i64 1, label %29
  ]

26:                                               ; preds = %.loopexit72
  %27 = getelementptr inbounds nuw i8, ptr %25, i64 64
  %28 = load ptr, ptr %27, align 8
  br label %29

29:                                               ; preds = %.loopexit72, %26
  %30 = phi ptr [ %28, %26 ], [ inttoptr (i64 1 to ptr), %.loopexit72 ]
  %.not6791 = icmp eq ptr %25, inttoptr (i64 1 to ptr)
  br i1 %.not6791, label %.loopexit, label %.lr.ph95.preheader

.lr.ph95.preheader:                               ; preds = %29
  %31 = getelementptr inbounds nuw i8, ptr %25, i64 64
  store ptr null, ptr %31, align 8
  %.not68110 = icmp eq ptr %30, inttoptr (i64 1 to ptr)
  br i1 %.not68110, label %.loopexit, label %.lr.ph95

.lr.ph95:                                         ; preds = %.lr.ph95.preheader, %.lr.ph95
  %.05892111 = phi ptr [ %33, %.lr.ph95 ], [ %30, %.lr.ph95.preheader ]
  %32 = getelementptr inbounds nuw i8, ptr %.05892111, i64 64
  %33 = load ptr, ptr %32, align 8
  %34 = getelementptr inbounds nuw i8, ptr %.05892111, i64 64
  store ptr null, ptr %34, align 8
  %.not68 = icmp eq ptr %33, inttoptr (i64 1 to ptr)
  br i1 %.not68, label %.loopexit, label %.lr.ph95, !llvm.loop !20

.loopexit:                                        ; preds = %.lr.ph95, %.lr.ph95.preheader, %29, %.loopexit72
  %35 = getelementptr inbounds nuw i8, ptr %.047101, i64 56
  tail call void @llvm.memset.p0.i64(ptr noundef nonnull align 8 dereferenceable(16) %6, i8 0, i64 16, i1 false)
  %.047 = load ptr, ptr %35, align 8
  %.not = icmp eq ptr %.047, null
  br i1 %.not, label %._crit_edge104, label %8, !llvm.loop !21

._crit_edge104:                                   ; preds = %.loopexit, %4
  %.0.lcssa = phi i32 [ -10, %4 ], [ %.1, %.loopexit ]
  ret i32 %.0.lcssa
}